; ModuleID = '55/666.cpp'
source_filename = "55/666.cpp"
target datalayout = "e-m:e-p270:32:32-p271:32:32-p272:64:64-i64:64-f80:128-n8:16:32:64-S128"
target triple = "x86_64-pc-linux-gnu"

%"class.std::ios_base::Init" = type { i8 }
%"class.std::basic_istream" = type { i32 (...)**, i64, %"class.std::basic_ios" }
%"class.std::basic_ios" = type { %"class.std::ios_base", %"class.std::basic_ostream"*, i8, i8, %"class.std::basic_streambuf"*, %"class.std::ctype"*, %"class.std::num_put"*, %"class.std::num_get"* }
%"class.std::ios_base" = type { i32 (...)**, i64, i64, i32, i32, i32, %"struct.std::ios_base::_Callback_list"*, %"struct.std::ios_base::_Words", [8 x %"struct.std::ios_base::_Words"], i32, %"struct.std::ios_base::_Words"*, %"class.std::locale" }
%"struct.std::ios_base::_Callback_list" = type { %"struct.std::ios_base::_Callback_list"*, void (i32, %"class.std::ios_base"*, i32)*, i32, i32 }
%"struct.std::ios_base::_Words" = type { i8*, i64 }
%"class.std::locale" = type { %"class.std::locale::_Impl"* }
%"class.std::locale::_Impl" = type { i32, %"class.std::locale::facet"**, i64, %"class.std::locale::facet"**, i8** }
%"class.std::locale::facet" = type <{ i32 (...)**, i32, [4 x i8] }>
%"class.std::basic_ostream" = type { i32 (...)**, %"class.std::basic_ios" }
%"class.std::basic_streambuf" = type { i32 (...)**, i8*, i8*, i8*, i8*, i8*, i8*, %"class.std::locale" }
%"class.std::ctype" = type <{ %"class.std::locale::facet.base", [4 x i8], %struct.__locale_struct*, i8, [7 x i8], i32*, i32*, i16*, i8, [256 x i8], [256 x i8], i8, [6 x i8] }>
%"class.std::locale::facet.base" = type <{ i32 (...)**, i32 }>
%struct.__locale_struct = type { [13 x %struct.__locale_data*], i16*, i32*, i32*, [13 x i8*] }
%struct.__locale_data = type opaque
%"class.std::num_put" = type { %"class.std::locale::facet.base", [4 x i8] }
%"class.std::num_get" = type { %"class.std::locale::facet.base", [4 x i8] }

$_ZSt3powIdiEN9__gnu_cxx11__promote_2IT_T0_NS0_9__promoteIS2_Xsr3std12__is_integerIS2_EE7__valueEE6__typeENS4_IS3_Xsr3std12__is_integerIS3_EE7__valueEE6__typeEE6__typeES2_S3_ = comdat any

@_ZStL8__ioinit = internal global %"class.std::ios_base::Init" zeroinitializer, align 1
@__dso_handle = external hidden global i8
@_ZSt3cin = external dso_local global %"class.std::basic_istream", align 8
@_ZSt4cout = external dso_local global %"class.std::basic_ostream", align 8
@llvm.global_ctors = appending global [1 x { i32, void ()*, i8* }] [{ i32, void ()*, i8* } { i32 65535, void ()* @_GLOBAL__sub_I_666.cpp, i8* null }]

; Function Attrs: noinline uwtable
define internal void @__cxx_global_var_init() #0 section ".text.startup" {
  call void @_ZNSt8ios_base4InitC1Ev(%"class.std::ios_base::Init"* @_ZStL8__ioinit)
  %1 = call i32 @__cxa_atexit(void (i8*)* bitcast (void (%"class.std::ios_base::Init"*)* @_ZNSt8ios_base4InitD1Ev to void (i8*)*), i8* getelementptr inbounds (%"class.std::ios_base::Init", %"class.std::ios_base::Init"* @_ZStL8__ioinit, i32 0, i32 0), i8* @__dso_handle) #3
  ret void
}

declare dso_local void @_ZNSt8ios_base4InitC1Ev(%"class.std::ios_base::Init"*) unnamed_addr #1

; Function Attrs: nounwind
declare dso_local void @_ZNSt8ios_base4InitD1Ev(%"class.std::ios_base::Init"*) unnamed_addr #2

; Function Attrs: nounwind
declare dso_local i32 @__cxa_atexit(void (i8*)*, i8*, i8*) #3

; Function Attrs: noinline norecurse uwtable
define dso_local i32 @main() #4 {
  %1 = alloca i32, align 4
  %2 = alloca i32, align 4
  %3 = alloca i32, align 4
  %4 = alloca i32, align 4
  %5 = alloca i32, align 4
  %6 = alloca i32, align 4
  %7 = alloca i32, align 4
  %8 = alloca [32 x i8], align 16
  %9 = alloca [32 x i8], align 16
  %10 = alloca i32, align 4
  %11 = alloca i32, align 4
  store i32 0, i32* %1, align 4
  store i32 0, i32* %4, align 4
  store i32 0, i32* %5, align 4
  store i32 0, i32* %6, align 4
  %12 = call dereferenceable(280) %"class.std::basic_istream"* @_ZNSirsERi(%"class.std::basic_istream"* @_ZSt3cin, i32* dereferenceable(4) %2)
  %13 = getelementptr inbounds [32 x i8], [32 x i8]* %8, i64 0, i64 0
  %14 = call dereferenceable(280) %"class.std::basic_istream"* @_ZStrsIcSt11char_traitsIcEERSt13basic_istreamIT_T0_ES6_PS3_(%"class.std::basic_istream"* dereferenceable(280) %12, i8* %13)
  %15 = call dereferenceable(280) %"class.std::basic_istream"* @_ZNSirsERi(%"class.std::basic_istream"* %14, i32* dereferenceable(4) %3)
  br label %16

16:                                               ; preds = %19, %0
  %17 = load i32, i32* %4, align 4
  %18 = add nsw i32 %17, 1
  store i32 %18, i32* %4, align 4
  br label %19

19:                                               ; preds = %16
  %20 = load i32, i32* %4, align 4
  %21 = sext i32 %20 to i64
  %22 = getelementptr inbounds [32 x i8], [32 x i8]* %8, i64 0, i64 %21
  %23 = load i8, i8* %22, align 1
  %24 = sext i8 %23 to i32
  %25 = icmp ne i32 %24, 0
  br i1 %25, label %16, label %26

26:                                               ; preds = %19
  store i32 0, i32* %10, align 4
  br label %27

27:                                               ; preds = %87, %26
  %28 = load i32, i32* %10, align 4
  %29 = load i32, i32* %4, align 4
  %30 = icmp slt i32 %28, %29
  br i1 %30, label %31, label %90

31:                                               ; preds = %27
  %32 = load i32, i32* %10, align 4
  %33 = sext i32 %32 to i64
  %34 = getelementptr inbounds [32 x i8], [32 x i8]* %8, i64 0, i64 %33
  %35 = load i8, i8* %34, align 1
  %36 = sext i8 %35 to i32
  %37 = icmp sgt i32 %36, 96
  br i1 %37, label %38, label %46

38:                                               ; preds = %31
  %39 = load i32, i32* %10, align 4
  %40 = sext i32 %39 to i64
  %41 = getelementptr inbounds [32 x i8], [32 x i8]* %8, i64 0, i64 %40
  %42 = load i8, i8* %41, align 1
  %43 = sext i8 %42 to i32
  %44 = sub nsw i32 %43, 87
  %45 = trunc i32 %44 to i8
  store i8 %45, i8* %41, align 1
  br label %70

46:                                               ; preds = %31
  %47 = load i32, i32* %10, align 4
  %48 = sext i32 %47 to i64
  %49 = getelementptr inbounds [32 x i8], [32 x i8]* %8, i64 0, i64 %48
  %50 = load i8, i8* %49, align 1
  %51 = sext i8 %50 to i32
  %52 = icmp sgt i32 %51, 64
  br i1 %52, label %53, label %61

53:                                               ; preds = %46
  %54 = load i32, i32* %10, align 4
  %55 = sext i32 %54 to i64
  %56 = getelementptr inbounds [32 x i8], [32 x i8]* %8, i64 0, i64 %55
  %57 = load i8, i8* %56, align 1
  %58 = sext i8 %57 to i32
  %59 = sub nsw i32 %58, 55
  %60 = trunc i32 %59 to i8
  store i8 %60, i8* %56, align 1
  br label %69

61:                                               ; preds = %46
  %62 = load i32, i32* %10, align 4
  %63 = sext i32 %62 to i64
  %64 = getelementptr inbounds [32 x i8], [32 x i8]* %8, i64 0, i64 %63
  %65 = load i8, i8* %64, align 1
  %66 = sext i8 %65 to i32
  %67 = sub nsw i32 %66, 48
  %68 = trunc i32 %67 to i8
  store i8 %68, i8* %64, align 1
  br label %69

69:                                               ; preds = %61, %53
  br label %70

70:                                               ; preds = %69, %38
  %71 = load i32, i32* %10, align 4
  %72 = sext i32 %71 to i64
  %73 = getelementptr inbounds [32 x i8], [32 x i8]* %8, i64 0, i64 %72
  %74 = load i8, i8* %73, align 1
  %75 = sext i8 %74 to i32
  %76 = load i32, i32* %2, align 4
  %77 = sitofp i32 %76 to double
  %78 = load i32, i32* %4, align 4
  %79 = sub nsw i32 %78, 1
  %80 = load i32, i32* %10, align 4
  %81 = sub nsw i32 %79, %80
  %82 = call double @_ZSt3powIdiEN9__gnu_cxx11__promote_2IT_T0_NS0_9__promoteIS2_Xsr3std12__is_integerIS2_EE7__valueEE6__typeENS4_IS3_Xsr3std12__is_integerIS3_EE7__valueEE6__typeEE6__typeES2_S3_(double %77, i32 %81)
  %83 = fptosi double %82 to i32
  %84 = mul nsw i32 %75, %83
  %85 = load i32, i32* %6, align 4
  %86 = add nsw i32 %85, %84
  store i32 %86, i32* %6, align 4
  br label %87

87:                                               ; preds = %70
  %88 = load i32, i32* %10, align 4
  %89 = add nsw i32 %88, 1
  store i32 %89, i32* %10, align 4
  br label %27

90:                                               ; preds = %27
  br label %91

91:                                               ; preds = %94, %90
  %92 = load i32, i32* %5, align 4
  %93 = add nsw i32 %92, 1
  store i32 %93, i32* %5, align 4
  br label %94

94:                                               ; preds = %91
  %95 = load i32, i32* %6, align 4
  %96 = sitofp i32 %95 to double
  %97 = load i32, i32* %3, align 4
  %98 = sitofp i32 %97 to double
  %99 = load i32, i32* %5, align 4
  %100 = call double @_ZSt3powIdiEN9__gnu_cxx11__promote_2IT_T0_NS0_9__promoteIS2_Xsr3std12__is_integerIS2_EE7__valueEE6__typeENS4_IS3_Xsr3std12__is_integerIS3_EE7__valueEE6__typeEE6__typeES2_S3_(double %98, i32 %99)
  %101 = fcmp ogt double %96, %100
  br i1 %101, label %91, label %102

102:                                              ; preds = %94
  store i32 0, i32* %11, align 4
  br label %103

103:                                              ; preds = %151, %102
  %104 = load i32, i32* %11, align 4
  %105 = load i32, i32* %5, align 4
  %106 = icmp slt i32 %104, %105
  br i1 %106, label %107, label %154

107:                                              ; preds = %103
  %108 = load i32, i32* %6, align 4
  %109 = sitofp i32 %108 to double
  %110 = load i32, i32* %3, align 4
  %111 = sitofp i32 %110 to double
  %112 = load i32, i32* %5, align 4
  %113 = load i32, i32* %11, align 4
  %114 = sub nsw i32 %112, %113
  %115 = sub nsw i32 %114, 1
  %116 = call double @_ZSt3powIdiEN9__gnu_cxx11__promote_2IT_T0_NS0_9__promoteIS2_Xsr3std12__is_integerIS2_EE7__valueEE6__typeENS4_IS3_Xsr3std12__is_integerIS3_EE7__valueEE6__typeEE6__typeES2_S3_(double %111, i32 %115)
  %117 = fdiv double %109, %116
  %118 = fptosi double %117 to i32
  store i32 %118, i32* %7, align 4
  %119 = load i32, i32* %7, align 4
  %120 = icmp slt i32 %119, 10
  br i1 %120, label %121, label %128

121:                                              ; preds = %107
  %122 = load i32, i32* %7, align 4
  %123 = add nsw i32 %122, 48
  %124 = trunc i32 %123 to i8
  %125 = load i32, i32* %11, align 4
  %126 = sext i32 %125 to i64
  %127 = getelementptr inbounds [32 x i8], [32 x i8]* %9, i64 0, i64 %126
  store i8 %124, i8* %127, align 1
  br label %136

128:                                              ; preds = %107
  %129 = load i32, i32* %7, align 4
  %130 = sub nsw i32 %129, 10
  %131 = add nsw i32 %130, 65
  %132 = trunc i32 %131 to i8
  %133 = load i32, i32* %11, align 4
  %134 = sext i32 %133 to i64
  %135 = getelementptr inbounds [32 x i8], [32 x i8]* %9, i64 0, i64 %134
  store i8 %132, i8* %135, align 1
  br label %136

136:                                              ; preds = %128, %121
  %137 = load i32, i32* %7, align 4
  %138 = sitofp i32 %137 to double
  %139 = load i32, i32* %3, align 4
  %140 = sitofp i32 %139 to double
  %141 = load i32, i32* %5, align 4
  %142 = load i32, i32* %11, align 4
  %143 = sub nsw i32 %141, %142
  %144 = sub nsw i32 %143, 1
  %145 = call double @_ZSt3powIdiEN9__gnu_cxx11__promote_2IT_T0_NS0_9__promoteIS2_Xsr3std12__is_integerIS2_EE7__valueEE6__typeENS4_IS3_Xsr3std12__is_integerIS3_EE7__valueEE6__typeEE6__typeES2_S3_(double %140, i32 %144)
  %146 = fmul double %138, %145
  %147 = load i32, i32* %6, align 4
  %148 = sitofp i32 %147 to double
  %149 = fsub double %148, %146
  %150 = fptosi double %149 to i32
  store i32 %150, i32* %6, align 4
  br label %151

151:                                              ; preds = %136
  %152 = load i32, i32* %11, align 4
  %153 = add nsw i32 %152, 1
  store i32 %153, i32* %11, align 4
  br label %103

154:                                              ; preds = %103
  %155 = load i32, i32* %5, align 4
  %156 = sext i32 %155 to i64
  %157 = getelementptr inbounds [32 x i8], [32 x i8]* %9, i64 0, i64 %156
  store i8 0, i8* %157, align 1
  %158 = getelementptr inbounds [32 x i8], [32 x i8]* %9, i64 0, i64 0
  %159 = call dereferenceable(272) %"class.std::basic_ostream"* @_ZStlsISt11char_traitsIcEERSt13basic_ostreamIcT_ES5_PKc(%"class.std::basic_ostream"* dereferenceable(272) @_ZSt4cout, i8* %158)
  ret i32 0
}

declare dso_local dereferenceable(280) %"class.std::basic_istream"* @_ZStrsIcSt11char_traitsIcEERSt13basic_istreamIT_T0_ES6_PS3_(%"class.std::basic_istream"* dereferenceable(280), i8*) #1

declare dso_local dereferenceable(280) %"class.std::basic_istream"* @_ZNSirsERi(%"class.std::basic_istream"*, i32* dereferenceable(4)) #1

; Function Attrs: noinline nounwind uwtable
define linkonce_odr dso_local double @_ZSt3powIdiEN9__gnu_cxx11__promote_2IT_T0_NS0_9__promoteIS2_Xsr3std12__is_integerIS2_EE7__valueEE6__typeENS4_IS3_Xsr3std12__is_integerIS3_EE7__valueEE6__typeEE6__typeES2_S3_(double %0, i32 %1) #5 comdat {
  %3 = alloca double, align 8
  %4 = alloca i32, align 4
  store double %0, double* %3, align 8
  store i32 %1, i32* %4, align 4
  %5 = load double, double* %3, align 8
  %6 = load i32, i32* %4, align 4
  %7 = sitofp i32 %6 to double
  %8 = call double @pow(double %5, double %7) #3
  ret double %8
}

declare dso_local dereferenceable(272) %"class.std::basic_ostream"* @_ZStlsISt11char_traitsIcEERSt13basic_ostreamIcT_ES5_PKc(%"class.std::basic_ostream"* dereferenceable(272), i8*) #1

; Function Attrs: nounwind
declare dso_local double @pow(double, double) #2

; Function Attrs: noinline uwtable
define internal void @_GLOBAL__sub_I_666.cpp() #0 section ".text.startup" {
  call void @__cxx_global_var_init()
  ret void
}


!llvm.module.flags = !{!0}
!llvm.ident = !{!1}

!0 = !{i32 1, !"wchar_size", i32 4}
!1 = !{!"clang version 10.0.0-4ubuntu1 "}
