; ModuleID = 'source-C-CXX/54/666.cpp'
source_filename = "source-C-CXX/54/666.cpp"
target datalayout = "e-m:e-p270:32:32-p271:32:32-p272:64:64-i64:64-f80:128-n8:16:32:64-S128"
target triple = "x86_64-pc-linux-gnu"

%"class.std::ios_base::Init" = type { i8 }
%"class.std::basic_istream" = type { i32 (...)**, i64, %"class.std::basic_ios" }
%"class.std::basic_ios" = type { %"class.std::ios_base", %"class.std::basic_ostream"*, i8, i8, %"class.std::basic_streambuf"*, %"class.std::ctype"*, %"class.std::num_put"*, %"class.std::num_get"* }
%"class.std::ios_base" = type { i32 (...)**, i64, i64, i32, i32, i32, %"struct.std::ios_base::_Callback_list"*, %"struct.std::ios_base::_Words", [8 x %"struct.std::ios_base::_Words"], i32, %"struct.std::ios_base::_Words"*, %"class.std::locale" }
%"struct.std::ios_base::_Callback_list" = type { %"struct.std::ios_base::_Callback_list"*, void (i32, %"class.std::ios_base"*, i32)*, i32, i32 }
%"struct.std::ios_base::_Words" = type { i8*, i64 }
%"class.std::locale" = type { %"class.std::locale::_Impl"* }
%"class.std::locale::_Impl" = type { i32, %"class.std::locale::facet"**, i64, %"class.std::locale::facet"**, i8** }
%"class.std::locale::facet" = type <{ i32 (...)**, i32, [4 x i8] }>
%"class.std::basic_ostream" = type { i32 (...)**, %"class.std::basic_ios" }
%"class.std::basic_streambuf" = type { i32 (...)**, i8*, i8*, i8*, i8*, i8*, i8*, %"class.std::locale" }
%"class.std::ctype" = type <{ %"class.std::locale::facet.base", [4 x i8], %struct.__locale_struct*, i8, [7 x i8], i32*, i32*, i16*, i8, [256 x i8], [256 x i8], i8, [6 x i8] }>
%"class.std::locale::facet.base" = type <{ i32 (...)**, i32 }>
%struct.__locale_struct = type { [13 x %struct.__locale_data*], i16*, i32*, i32*, [13 x i8*] }
%struct.__locale_data = type opaque
%"class.std::num_put" = type { %"class.std::locale::facet.base", [4 x i8] }
%"class.std::num_get" = type { %"class.std::locale::facet.base", [4 x i8] }

@_ZStL8__ioinit = internal global %"class.std::ios_base::Init" zeroinitializer, align 1
@__dso_handle = external hidden global i8
@_ZSt3cin = external global %"class.std::basic_istream", align 8
@_ZSt4cout = external global %"class.std::basic_ostream", align 8
@llvm.global_ctors = appending global [1 x { i32, void ()*, i8* }] [{ i32, void ()*, i8* } { i32 65535, void ()* @_GLOBAL__sub_I_666.cpp, i8* null }]

declare void @_ZNSt8ios_base4InitC1Ev(%"class.std::ios_base::Init"* nonnull align 1 dereferenceable(1)) unnamed_addr #0

; Function Attrs: nounwind
declare void @_ZNSt8ios_base4InitD1Ev(%"class.std::ios_base::Init"* nonnull align 1 dereferenceable(1)) unnamed_addr #1

; Function Attrs: nofree nounwind
declare i32 @__cxa_atexit(void (i8*)*, i8*, i8*) local_unnamed_addr #2

; Function Attrs: mustprogress norecurse sspstrong uwtable
define dso_local i32 @main() local_unnamed_addr #3 {
  %1 = alloca i32, align 4
  %2 = alloca i32, align 4
  %3 = alloca [32 x i8], align 16
  %4 = alloca [32 x i8], align 16
  %5 = bitcast i32* %1 to i8*
  call void @llvm.lifetime.start.p0i8(i64 4, i8* nonnull %5) #8
  %6 = bitcast i32* %2 to i8*
  call void @llvm.lifetime.start.p0i8(i64 4, i8* nonnull %6) #8
  %7 = getelementptr inbounds [32 x i8], [32 x i8]* %3, i64 0, i64 0
  call void @llvm.lifetime.start.p0i8(i64 32, i8* nonnull %7) #8
  %8 = getelementptr inbounds [32 x i8], [32 x i8]* %4, i64 0, i64 0
  call void @llvm.lifetime.start.p0i8(i64 32, i8* nonnull %8) #8
  %9 = call nonnull align 8 dereferenceable(16) %"class.std::basic_istream"* @_ZNSirsERi(%"class.std::basic_istream"* nonnull align 8 dereferenceable(16) @_ZSt3cin, i32* nonnull align 4 dereferenceable(4) %1)
  call void @_ZSt17__istream_extractRSiPcl(%"class.std::basic_istream"* nonnull align 8 dereferenceable(16) %9, i8* nonnull %7, i64 32)
  %10 = call nonnull align 8 dereferenceable(16) %"class.std::basic_istream"* @_ZNSirsERi(%"class.std::basic_istream"* nonnull align 8 dereferenceable(16) %9, i32* nonnull align 4 dereferenceable(4) %2)
  br label %11

11:                                               ; preds = %11, %0
  %12 = phi i64 [ %13, %11 ], [ 0, %0 ]
  %13 = add nuw nsw i64 %12, 1
  %14 = getelementptr inbounds [32 x i8], [32 x i8]* %3, i64 0, i64 %13
  %15 = load i8, i8* %14, align 1, !tbaa !5
  %16 = icmp eq i8 %15, 0
  br i1 %16, label %17, label %11, !llvm.loop !8

17:                                               ; preds = %11
  %18 = trunc i64 %12 to i32
  %19 = add nuw i64 %12, 1
  %20 = and i64 %19, 4294967295
  br label %23

21:                                               ; preds = %23
  %22 = sitofp i32 %42 to double
  br label %45

23:                                               ; preds = %17, %23
  %24 = phi i64 [ 0, %17 ], [ %43, %23 ]
  %25 = phi i32 [ 0, %17 ], [ %42, %23 ]
  %26 = getelementptr inbounds [32 x i8], [32 x i8]* %3, i64 0, i64 %24
  %27 = load i8, i8* %26, align 1, !tbaa !5
  %28 = icmp sgt i8 %27, 96
  %29 = icmp sgt i8 %27, 64
  %30 = select i1 %29, i8 -55, i8 -48
  %31 = select i1 %28, i8 -87, i8 %30
  %32 = add i8 %27, %31
  store i8 %32, i8* %26, align 1, !tbaa !5
  %33 = sext i8 %32 to i32
  %34 = load i32, i32* %1, align 4, !tbaa !10
  %35 = sitofp i32 %34 to double
  %36 = trunc i64 %24 to i32
  %37 = sub nsw i32 %18, %36
  %38 = sitofp i32 %37 to double
  %39 = call double @pow(double %35, double %38) #8
  %40 = fptosi double %39 to i32
  %41 = mul nsw i32 %40, %33
  %42 = add nsw i32 %41, %25
  %43 = add nuw nsw i64 %24, 1
  %44 = icmp eq i64 %43, %20
  br i1 %44, label %21, label %23, !llvm.loop !12

45:                                               ; preds = %21, %45
  %46 = phi i32 [ %47, %45 ], [ 0, %21 ]
  %47 = add nuw i32 %46, 1
  %48 = load i32, i32* %2, align 4, !tbaa !10
  %49 = sitofp i32 %48 to double
  %50 = sitofp i32 %47 to double
  %51 = call double @pow(double %49, double %50) #8
  %52 = fcmp olt double %51, %22
  br i1 %52, label %45, label %53, !llvm.loop !13

53:                                               ; preds = %45
  %54 = zext i32 %47 to i64
  br label %59

55:                                               ; preds = %59
  %56 = getelementptr inbounds [32 x i8], [32 x i8]* %4, i64 0, i64 %54
  store i8 0, i8* %56, align 1, !tbaa !5
  %57 = call i64 @strlen(i8* noundef nonnull dereferenceable(1) %8) #8
  %58 = call nonnull align 8 dereferenceable(8) %"class.std::basic_ostream"* @_ZSt16__ostream_insertIcSt11char_traitsIcEERSt13basic_ostreamIT_T0_ES6_PKS3_l(%"class.std::basic_ostream"* nonnull align 8 dereferenceable(8) @_ZSt4cout, i8* nonnull %8, i64 %57)
  call void @llvm.lifetime.end.p0i8(i64 32, i8* nonnull %8) #8
  call void @llvm.lifetime.end.p0i8(i64 32, i8* nonnull %7) #8
  call void @llvm.lifetime.end.p0i8(i64 4, i8* nonnull %6) #8
  call void @llvm.lifetime.end.p0i8(i64 4, i8* nonnull %5) #8
  ret i32 0

59:                                               ; preds = %53, %59
  %60 = phi i64 [ 0, %53 ], [ %83, %59 ]
  %61 = phi i32 [ %42, %53 ], [ %82, %59 ]
  %62 = sitofp i32 %61 to double
  %63 = load i32, i32* %2, align 4, !tbaa !10
  %64 = sitofp i32 %63 to double
  %65 = trunc i64 %60 to i32
  %66 = sub i32 %46, %65
  %67 = sitofp i32 %66 to double
  %68 = call double @pow(double %64, double %67) #8
  %69 = fdiv double %62, %68
  %70 = fptosi double %69 to i32
  %71 = icmp slt i32 %70, 10
  %72 = trunc i32 %70 to i8
  %73 = select i1 %71, i8 48, i8 55
  %74 = add i8 %73, %72
  %75 = getelementptr inbounds [32 x i8], [32 x i8]* %4, i64 0, i64 %60
  store i8 %74, i8* %75, align 1
  %76 = sitofp i32 %70 to double
  %77 = load i32, i32* %2, align 4, !tbaa !10
  %78 = sitofp i32 %77 to double
  %79 = call double @pow(double %78, double %67) #8
  %80 = fmul double %79, %76
  %81 = fsub double %62, %80
  %82 = fptosi double %81 to i32
  %83 = add nuw nsw i64 %60, 1
  %84 = icmp eq i64 %83, %54
  br i1 %84, label %55, label %59, !llvm.loop !14
}

; Function Attrs: argmemonly mustprogress nofree nosync nounwind willreturn
declare void @llvm.lifetime.start.p0i8(i64 immarg, i8* nocapture) #4

declare nonnull align 8 dereferenceable(16) %"class.std::basic_istream"* @_ZNSirsERi(%"class.std::basic_istream"* nonnull align 8 dereferenceable(16), i32* nonnull align 4 dereferenceable(4)) local_unnamed_addr #0

; Function Attrs: argmemonly mustprogress nofree nosync nounwind willreturn
declare void @llvm.lifetime.end.p0i8(i64 immarg, i8* nocapture) #4

; Function Attrs: mustprogress nofree nounwind willreturn
declare double @pow(double, double) local_unnamed_addr #5

declare void @_ZSt17__istream_extractRSiPcl(%"class.std::basic_istream"* nonnull align 8 dereferenceable(16), i8*, i64) local_unnamed_addr #0

declare nonnull align 8 dereferenceable(8) %"class.std::basic_ostream"* @_ZSt16__ostream_insertIcSt11char_traitsIcEERSt13basic_ostreamIT_T0_ES6_PKS3_l(%"class.std::basic_ostream"* nonnull align 8 dereferenceable(8), i8*, i64) local_unnamed_addr #0

; Function Attrs: argmemonly mustprogress nofree nounwind readonly willreturn
declare i64 @strlen(i8* nocapture) local_unnamed_addr #6

; Function Attrs: sspstrong uwtable
define internal void @_GLOBAL__sub_I_666.cpp() #7 section ".text.startup" {
  tail call void @_ZNSt8ios_base4InitC1Ev(%"class.std::ios_base::Init"* nonnull align 1 dereferenceable(1) @_ZStL8__ioinit)
  %1 = tail call i32 @__cxa_atexit(void (i8*)* bitcast (void (%"class.std::ios_base::Init"*)* @_ZNSt8ios_base4InitD1Ev to void (i8*)*), i8* getelementptr inbounds (%"class.std::ios_base::Init", %"class.std::ios_base::Init"* @_ZStL8__ioinit, i64 0, i32 0), i8* nonnull @__dso_handle) #8
  ret void
}


!llvm.module.flags = !{!0, !1, !2, !3}
!llvm.ident = !{!4}

!0 = !{i32 1, !"wchar_size", i32 4}
!1 = !{i32 7, !"PIC Level", i32 2}
!2 = !{i32 7, !"PIE Level", i32 2}
!3 = !{i32 7, !"uwtable", i32 1}
!4 = !{!"clang version 13.0.0"}
!5 = !{!6, !6, i64 0}
!6 = !{!"omnipotent char", !7, i64 0}
!7 = !{!"Simple C++ TBAA"}
!8 = distinct !{!8, !9}
!9 = !{!"llvm.loop.mustprogress"}
!10 = !{!11, !11, i64 0}
!11 = !{!"int", !6, i64 0}
!12 = distinct !{!12, !9}
!13 = distinct !{!13, !9}
!14 = distinct !{!14, !9}
